target datalayout = "e-m:e-p270:32:32-p271:32:32-p272:64:64-i64:64-i128:128-f80:128-n8:16:32:64-S128"
target triple = "x86_64-pc-linux-gnu"

%"class.arrow::compute::internal::(anonymous namespace)::PrimitiveFilterImpl" = type { i64, ptr, ptr, i64, i64, i64, ptr, i32, ptr, ptr, i64, i64 }
%class.anon.242 = type { ptr }

; Function Attrs: mustprogress uwtable
define internal void @_ZN5arrow7compute8internal12_GLOBAL__N_119PrimitiveFilterImplILi1ELb1EE16WriteNullSegmentEl(ptr noundef nonnull align 8 dereferenceable(96) %0, i64 noundef %1) #1 align 2 {
  %3 = alloca ptr, align 8
  %4 = alloca i64, align 8
  store ptr %0, ptr %3, align 8, !tbaa !147
  store i64 %1, ptr %4, align 8, !tbaa !43
  %5 = load ptr, ptr %3, align 8
  %6 = getelementptr inbounds nuw %"class.arrow::compute::internal::(anonymous namespace)::PrimitiveFilterImpl", ptr %5, i32 0, i32 9
  %7 = load ptr, ptr %6, align 8, !tbaa !161
  %8 = getelementptr inbounds nuw %"class.arrow::compute::internal::(anonymous namespace)::PrimitiveFilterImpl", ptr %5, i32 0, i32 11
  %9 = load i64, ptr %8, align 8, !tbaa !182
  %10 = load i64, ptr %4, align 8, !tbaa !43
  call void @_ZN5arrow8bit_util9SetBitsToEPhllb(ptr noundef %7, i64 noundef %9, i64 noundef %10, i1 noundef zeroext false)
  %11 = load i64, ptr %4, align 8, !tbaa !43
  %12 = getelementptr inbounds nuw %"class.arrow::compute::internal::(anonymous namespace)::PrimitiveFilterImpl", ptr %5, i32 0, i32 11
  %13 = load i64, ptr %12, align 8, !tbaa !182
  %14 = add nsw i64 %13, %11
  store i64 %14, ptr %12, align 8, !tbaa !182
  ret void
}

; Function Attrs: mustprogress uwtable
define internal void @_ZN5arrow7compute8internal12_GLOBAL__N_119PrimitiveFilterImplILi1ELb1EE17WriteValueSegmentEll(ptr noundef nonnull align 8 dereferenceable(96) %0, i64 noundef %1, i64 noundef %2) #1 align 2 {
  %4 = alloca ptr, align 8
  %5 = alloca i64, align 8
  %6 = alloca i64, align 8
  store ptr %0, ptr %4, align 8, !tbaa !147
  store i64 %1, ptr %5, align 8, !tbaa !43
  store i64 %2, ptr %6, align 8, !tbaa !43
  %7 = load ptr, ptr %4, align 8
  %8 = getelementptr inbounds nuw %"class.arrow::compute::internal::(anonymous namespace)::PrimitiveFilterImpl", ptr %7, i32 0, i32 2
  %9 = load ptr, ptr %8, align 8, !tbaa !152
  %10 = getelementptr inbounds nuw %"class.arrow::compute::internal::(anonymous namespace)::PrimitiveFilterImpl", ptr %7, i32 0, i32 4
  %11 = load i64, ptr %10, align 8, !tbaa !154
  %12 = load i64, ptr %5, align 8, !tbaa !43
  %13 = add nsw i64 %11, %12
  %14 = load i64, ptr %6, align 8, !tbaa !43
  %15 = getelementptr inbounds nuw %"class.arrow::compute::internal::(anonymous namespace)::PrimitiveFilterImpl", ptr %7, i32 0, i32 9
  %16 = load ptr, ptr %15, align 8, !tbaa !161
  %17 = getelementptr inbounds nuw %"class.arrow::compute::internal::(anonymous namespace)::PrimitiveFilterImpl", ptr %7, i32 0, i32 11
  %18 = load i64, ptr %17, align 8, !tbaa !182
  call void @_ZN5arrow8internal10CopyBitmapEPKhllPhl(ptr noundef %9, i64 noundef %13, i64 noundef %14, ptr noundef %16, i64 noundef %18)
  %19 = load i64, ptr %6, align 8, !tbaa !43
  %20 = getelementptr inbounds nuw %"class.arrow::compute::internal::(anonymous namespace)::PrimitiveFilterImpl", ptr %7, i32 0, i32 11
  %21 = load i64, ptr %20, align 8, !tbaa !182
  %22 = add nsw i64 %21, %19
  store i64 %22, ptr %20, align 8, !tbaa !182
  ret void
}

; Function Attrs: inlinehint mustprogress uwtable
define internal noundef zeroext i1 @_ZZN5arrow7compute8internal12_GLOBAL__N_119PrimitiveFilterImplILi1ELb1EE13ExecREEFilterEvENKUlllbE1_clEllb(ptr noundef nonnull align 8 dereferenceable(8) %0, i64 noundef %1, i64 noundef %2, i1 noundef zeroext %3) #8 align 2 {
  %5 = alloca ptr, align 8
  %6 = alloca i64, align 8
  %7 = alloca i64, align 8
  %8 = alloca i8, align 1
  store ptr %0, ptr %5, align 8, !tbaa !488
  store i64 %1, ptr %6, align 8, !tbaa !43
  store i64 %2, ptr %7, align 8, !tbaa !43
  %9 = zext i1 %3 to i8
  store i8 %9, ptr %8, align 1, !tbaa !111
  %10 = load ptr, ptr %5, align 8
  %11 = getelementptr inbounds nuw %class.anon.242, ptr %10, i32 0, i32 0
  %12 = load ptr, ptr %11, align 8, !tbaa !1156
  %13 = load i8, ptr %8, align 1, !tbaa !111, !range !119, !noundef !120
  %14 = trunc i8 %13 to i1
  br i1 %14, label %15, label %18

15:                                               ; preds = %4
  %16 = load i64, ptr %6, align 8, !tbaa !43
  %17 = load i64, ptr %7, align 8, !tbaa !43
  call void @_ZN5arrow7compute8internal12_GLOBAL__N_119PrimitiveFilterImplILi1ELb1EE17WriteValueSegmentEll(ptr noundef nonnull align 8 dereferenceable(96) %12, i64 noundef %16, i64 noundef %17)
  br label %25

18:                                               ; preds = %4
  %19 = getelementptr inbounds nuw %"class.arrow::compute::internal::(anonymous namespace)::PrimitiveFilterImpl", ptr %12, i32 0, i32 8
  %20 = load ptr, ptr %19, align 8, !tbaa !157
  %21 = getelementptr inbounds nuw %"class.arrow::compute::internal::(anonymous namespace)::PrimitiveFilterImpl", ptr %12, i32 0, i32 11
  %22 = load i64, ptr %21, align 8, !tbaa !182
  %23 = load i64, ptr %7, align 8, !tbaa !43
  call void @_ZN5arrow8bit_util9SetBitsToEPhllb(ptr noundef %20, i64 noundef %22, i64 noundef %23, i1 noundef zeroext false)
  %24 = load i64, ptr %7, align 8, !tbaa !43
  call void @_ZN5arrow7compute8internal12_GLOBAL__N_119PrimitiveFilterImplILi1ELb1EE16WriteNullSegmentEl(ptr noundef nonnull align 8 dereferenceable(96) %12, i64 noundef %24)
  br label %25

25:                                               ; preds = %18, %15
  ret i1 true
}

; Function Attrs: mustprogress nounwind uwtable
define linkonce_odr noundef ptr @_ZNKSt9_Any_data9_M_accessEv(ptr noundef nonnull align 8 dereferenceable(16) %0) #0 comdat align 2 {
  %2 = alloca ptr, align 8
  store ptr %0, ptr %2, align 8, !tbaa !524
  %3 = load ptr, ptr %2, align 8
  %4 = getelementptr inbounds [16 x i8], ptr %3, i64 0, i64 0
  ret ptr %4
}

; Function Attrs: mustprogress uwtable
define internal noundef zeroext i1 @_ZSt13__invoke_implIbRZN5arrow7compute8internal12_GLOBAL__N_119PrimitiveFilterImplILi1ELb1EE13ExecREEFilterEvEUlllbE1_JllbEET_St14__invoke_otherOT0_DpOT1_(ptr noundef nonnull align 8 dereferenceable(8) %0, ptr noundef nonnull align 8 dereferenceable(8) %1, ptr noundef nonnull align 8 dereferenceable(8) %2, ptr noundef nonnull align 1 dereferenceable(1) %3) #1 {
  %5 = alloca ptr, align 8
  %6 = alloca ptr, align 8
  %7 = alloca ptr, align 8
  %8 = alloca ptr, align 8
  store ptr %0, ptr %5, align 8, !tbaa !488
  store ptr %1, ptr %6, align 8, !tbaa !103
  store ptr %2, ptr %7, align 8, !tbaa !103
  store ptr %3, ptr %8, align 8, !tbaa !526
  %9 = load ptr, ptr %5, align 8, !tbaa !488
  %10 = load ptr, ptr %6, align 8, !tbaa !103
  %11 = load i64, ptr %10, align 8, !tbaa !43
  %12 = load ptr, ptr %7, align 8, !tbaa !103
  %13 = load i64, ptr %12, align 8, !tbaa !43
  %14 = load ptr, ptr %8, align 8, !tbaa !526
  %15 = load i8, ptr %14, align 1, !tbaa !111, !range !119, !noundef !120
  %16 = trunc i8 %15 to i1
  %17 = call noundef zeroext i1 @_ZZN5arrow7compute8internal12_GLOBAL__N_119PrimitiveFilterImplILi1ELb1EE13ExecREEFilterEvENKUlllbE1_clEllb(ptr noundef nonnull align 8 dereferenceable(8) %9, i64 noundef %11, i64 noundef %13, i1 noundef zeroext %16)
  ret i1 %17
}

; Function Attrs: mustprogress nounwind uwtable
define internal noundef nonnull align 8 dereferenceable(8) ptr @_ZNKSt9_Any_data9_M_accessIZN5arrow7compute8internal12_GLOBAL__N_119PrimitiveFilterImplILi1ELb1EE13ExecREEFilterEvEUlllbE1_EERKT_v(ptr noundef nonnull align 8 dereferenceable(16) %0) #0 align 2 {
  %2 = alloca ptr, align 8
  store ptr %0, ptr %2, align 8, !tbaa !524
  %3 = load ptr, ptr %2, align 8
  %4 = call noundef ptr @_ZNKSt9_Any_data9_M_accessEv(ptr noundef nonnull align 8 dereferenceable(16) %3) #7
  ret ptr %4
}

; Function Attrs: mustprogress uwtable
define internal noundef zeroext i1 @_ZSt10__invoke_rIbRZN5arrow7compute8internal12_GLOBAL__N_119PrimitiveFilterImplILi1ELb1EE13ExecREEFilterEvEUlllbE1_JllbEENSt9enable_ifIX16is_invocable_r_vIT_T0_DpT1_EES9_E4typeEOSA_DpOSB_(ptr noundef nonnull align 8 dereferenceable(8) %0, ptr noundef nonnull align 8 dereferenceable(8) %1, ptr noundef nonnull align 8 dereferenceable(8) %2, ptr noundef nonnull align 1 dereferenceable(1) %3) #1 {
  %5 = alloca ptr, align 8
  %6 = alloca ptr, align 8
  %7 = alloca ptr, align 8
  %8 = alloca ptr, align 8
  store ptr %0, ptr %5, align 8, !tbaa !488
  store ptr %1, ptr %6, align 8, !tbaa !103
  store ptr %2, ptr %7, align 8, !tbaa !103
  store ptr %3, ptr %8, align 8, !tbaa !526
  %9 = load ptr, ptr %5, align 8, !tbaa !488
  %10 = load ptr, ptr %6, align 8, !tbaa !103
  %11 = load ptr, ptr %7, align 8, !tbaa !103
  %12 = load ptr, ptr %8, align 8, !tbaa !526
  %13 = call noundef zeroext i1 @_ZSt13__invoke_implIbRZN5arrow7compute8internal12_GLOBAL__N_119PrimitiveFilterImplILi1ELb1EE13ExecREEFilterEvEUlllbE1_JllbEET_St14__invoke_otherOT0_DpOT1_(ptr noundef nonnull align 8 dereferenceable(8) %9, ptr noundef nonnull align 8 dereferenceable(8) %10, ptr noundef nonnull align 8 dereferenceable(8) %11, ptr noundef nonnull align 1 dereferenceable(1) %12)
  ret i1 %13
}

; Function Attrs: mustprogress nounwind uwtable
define internal noundef ptr @_ZNSt14_Function_base13_Base_managerIZN5arrow7compute8internal12_GLOBAL__N_119PrimitiveFilterImplILi1ELb1EE13ExecREEFilterEvEUlllbE1_E14_M_get_pointerERKSt9_Any_data(ptr noundef nonnull align 8 dereferenceable(16) %0) #0 align 2 {
  %2 = alloca ptr, align 8
  %3 = alloca ptr, align 8
  store ptr %0, ptr %2, align 8, !tbaa !524
  call void @llvm.lifetime.start.p0(i64 8, ptr %3) #7
  %4 = load ptr, ptr %2, align 8, !tbaa !524
  %5 = call noundef nonnull align 8 dereferenceable(8) ptr @_ZNKSt9_Any_data9_M_accessIZN5arrow7compute8internal12_GLOBAL__N_119PrimitiveFilterImplILi1ELb1EE13ExecREEFilterEvEUlllbE1_EERKT_v(ptr noundef nonnull align 8 dereferenceable(16) %4) #7
  store ptr %5, ptr %3, align 8, !tbaa !488
  %6 = load ptr, ptr %3, align 8, !tbaa !488
  call void @llvm.lifetime.end.p0(i64 8, ptr %3) #7
  ret ptr %6
}

; Function Attrs: mustprogress uwtable
define internal noundef zeroext i1 @_ZNSt17_Function_handlerIFbllbEZN5arrow7compute8internal12_GLOBAL__N_119PrimitiveFilterImplILi1ELb1EE13ExecREEFilterEvEUlllbE1_E9_M_invokeERKSt9_Any_dataOlSC_Ob(ptr noundef nonnull align 8 dereferenceable(16) %0, ptr noundef nonnull align 8 dereferenceable(8) %1, ptr noundef nonnull align 8 dereferenceable(8) %2, ptr noundef nonnull align 1 dereferenceable(1) %3) #1 align 2 {
  %5 = alloca ptr, align 8
  %6 = alloca ptr, align 8
  %7 = alloca ptr, align 8
  %8 = alloca ptr, align 8
  store ptr %0, ptr %5, align 8, !tbaa !524
  store ptr %1, ptr %6, align 8, !tbaa !103
  store ptr %2, ptr %7, align 8, !tbaa !103
  store ptr %3, ptr %8, align 8, !tbaa !526
  %9 = load ptr, ptr %5, align 8, !tbaa !524
  %10 = call noundef ptr @_ZNSt14_Function_base13_Base_managerIZN5arrow7compute8internal12_GLOBAL__N_119PrimitiveFilterImplILi1ELb1EE13ExecREEFilterEvEUlllbE1_E14_M_get_pointerERKSt9_Any_data(ptr noundef nonnull align 8 dereferenceable(16) %9) #7
  %11 = load ptr, ptr %6, align 8, !tbaa !103
  %12 = load ptr, ptr %7, align 8, !tbaa !103
  %13 = load ptr, ptr %8, align 8, !tbaa !526
  %14 = call noundef zeroext i1 @_ZSt10__invoke_rIbRZN5arrow7compute8internal12_GLOBAL__N_119PrimitiveFilterImplILi1ELb1EE13ExecREEFilterEvEUlllbE1_JllbEENSt9enable_ifIX16is_invocable_r_vIT_T0_DpT1_EES9_E4typeEOSA_DpOSB_(ptr noundef nonnull align 8 dereferenceable(8) %10, ptr noundef nonnull align 8 dereferenceable(8) %11, ptr noundef nonnull align 8 dereferenceable(8) %12, ptr noundef nonnull align 1 dereferenceable(1) %13)
  ret i1 %14
}