; Function Attrs: mustprogress uwtable
define internal noundef zeroext i1 @_ZNSt17_Function_handlerIFbllbEZN5arrow7compute8internal12_GLOBAL__N_119PrimitiveFilterImplILi1ELb1EE13ExecREEFilterEvEUlllbE1_E9_M_invokeERKSt9_Any_dataOlSC_Ob(ptr noundef nonnull readonly align 8 captures(none) dereferenceable(16) %0, ptr noundef nonnull readonly align 8 captures(none) dereferenceable(8) %1, ptr noundef nonnull readonly align 8 captures(none) dereferenceable(8) %2, ptr noundef nonnull readonly align 1 captures(none) dereferenceable(1) %3) #1 align 2 {
  %.val = load ptr, ptr %0, align 8, !tbaa !904
  %.val5 = load i64, ptr %2, align 8, !tbaa !75
  %.val6 = load i8, ptr %3, align 1, !tbaa !795, !range !137, !noundef !138
  %5 = trunc nuw i8 %.val6 to i1
  %6 = getelementptr inbounds nuw i8, ptr %.val, i64 72
  br i1 %5, label %7, label %18

7:                                                ; preds = %4
  %.val4 = load i64, ptr %1, align 8, !tbaa !75
  %8 = getelementptr inbounds nuw i8, ptr %.val, i64 16
  %9 = load ptr, ptr %8, align 8, !tbaa !117
  %10 = getelementptr inbounds nuw i8, ptr %.val, i64 32
  %11 = load i64, ptr %10, align 8, !tbaa !119
  %12 = add nsw i64 %11, %.val4
  %13 = load ptr, ptr %6, align 8, !tbaa !140
  %14 = getelementptr inbounds nuw i8, ptr %.val, i64 88
  %15 = load i64, ptr %14, align 8, !tbaa !160
  tail call void @_ZN5arrow8internal10CopyBitmapEPKhllPhl(ptr noundef %9, i64 noundef %12, i64 noundef %.val5, ptr noundef %13, i64 noundef %15)
  %16 = load i64, ptr %14, align 8, !tbaa !160
  %17 = add nsw i64 %16, %.val5
  store i64 %17, ptr %14, align 8, !tbaa !160
  br label %_ZSt10__invoke_rIbRZN5arrow7compute8internal12_GLOBAL__N_119PrimitiveFilterImplILi1ELb1EE13ExecREEFilterEvEUlllbE1_JllbEENSt9enable_ifIX16is_invocable_r_vIT_T0_DpT1_EES9_E4typeEOSA_DpOSB_.exit

18:                                               ; preds = %4
  %19 = getelementptr inbounds nuw i8, ptr %.val, i64 64
  %20 = load ptr, ptr %19, align 8, !tbaa !123
  %21 = getelementptr inbounds nuw i8, ptr %.val, i64 88
  %22 = load i64, ptr %21, align 8, !tbaa !160
  tail call void @_ZN5arrow8bit_util9SetBitsToEPhllb(ptr noundef %20, i64 noundef %22, i64 noundef %.val5, i1 noundef zeroext false)
  %23 = load ptr, ptr %6, align 8, !tbaa !140
  %24 = load i64, ptr %21, align 8, !tbaa !160
  tail call void @_ZN5arrow8bit_util9SetBitsToEPhllb(ptr noundef %23, i64 noundef %24, i64 noundef %.val5, i1 noundef zeroext false)
  %25 = load i64, ptr %21, align 8, !tbaa !160
  %26 = add nsw i64 %25, %.val5
  store i64 %26, ptr %21, align 8, !tbaa !160
  br label %_ZSt10__invoke_rIbRZN5arrow7compute8internal12_GLOBAL__N_119PrimitiveFilterImplILi1ELb1EE13ExecREEFilterEvEUlllbE1_JllbEENSt9enable_ifIX16is_invocable_r_vIT_T0_DpT1_EES9_E4typeEOSA_DpOSB_.exit

_ZSt10__invoke_rIbRZN5arrow7compute8internal12_GLOBAL__N_119PrimitiveFilterImplILi1ELb1EE13ExecREEFilterEvEUlllbE1_JllbEENSt9enable_ifIX16is_invocable_r_vIT_T0_DpT1_EES9_E4typeEOSA_DpOSB_.exit: ; preds = %7, %18
  ret i1 true
}